target datalayout = "e-m:e-p270:32:32-p271:32:32-p272:64:64-i64:64-i128:128-f80:128-n8:16:32:64-S128"
target triple = "x86_64-pc-linux-gnu"

@hf_swid = internal global i32 0, align 4
@hf_sswid = internal global i32 0, align 4
@hf_eid = internal global i32 0, align 4
@hf_lid = internal global i32 0, align 4
@hf_ul = internal global i32 0, align 4
@hf_ig = internal global i32 0, align 4
@hf_ooodl = internal global i32 0, align 4

; Function Attrs: nounwind uwtable
define internal void @fp_add_hmac(ptr noundef %0, ptr noundef %1, i32 noundef %2) #0 {
  %4 = alloca ptr, align 8
  %5 = alloca ptr, align 8
  %6 = alloca i32, align 4
  %7 = alloca i16, align 2
  store ptr %0, ptr %4, align 8
  store ptr %1, ptr %5, align 8
  store i32 %2, ptr %6, align 4
  %8 = load ptr, ptr %5, align 8
  %9 = icmp ne ptr %8, null
  br i1 %9, label %11, label %10

10:                                               ; preds = %3
  br label %70

11:                                               ; preds = %3
  %12 = load ptr, ptr %4, align 8
  %13 = load i32, ptr %6, align 4
  %14 = call zeroext i16 @tvb_get_ntohs(ptr noundef %12, i32 noundef %13)
  store i16 %14, ptr %7, align 2
  %15 = load i16, ptr %7, align 2
  %16 = zext i16 %15 to i32
  %17 = and i32 %16, 64704
  %18 = trunc i32 %17 to i16
  store i16 %18, ptr %7, align 2
  %19 = load i16, ptr %7, align 2
  %20 = zext i16 %19 to i32
  %21 = and i32 %20, 192
  %22 = ashr i32 %21, 6
  %23 = load i16, ptr %7, align 2
  %24 = zext i16 %23 to i32
  %25 = and i32 %24, 64512
  %26 = ashr i32 %25, 8
  %27 = add i32 %22, %26
  %28 = trunc i32 %27 to i16
  store i16 %28, ptr %7, align 2
  %29 = load ptr, ptr %5, align 8
  %30 = load i32, ptr @hf_eid, align 4
  %31 = load ptr, ptr %4, align 8
  %32 = load i32, ptr %6, align 4
  %33 = load i16, ptr %7, align 2
  %34 = zext i16 %33 to i32
  %35 = call ptr @proto_tree_add_uint(ptr noundef %29, i32 noundef %30, ptr noundef %31, i32 noundef %32, i32 noundef 3, i32 noundef %34)
  %36 = load ptr, ptr %5, align 8
  %37 = load i32, ptr @hf_ul, align 4
  %38 = load ptr, ptr %4, align 8
  %39 = load i32, ptr %6, align 4
  %40 = call ptr @proto_tree_add_item(ptr noundef %36, i32 noundef %37, ptr noundef %38, i32 noundef %39, i32 noundef 3, i32 noundef 0)
  %41 = load ptr, ptr %5, align 8
  %42 = load i32, ptr @hf_ig, align 4
  %43 = load ptr, ptr %4, align 8
  %44 = load i32, ptr %6, align 4
  %45 = call ptr @proto_tree_add_item(ptr noundef %41, i32 noundef %42, ptr noundef %43, i32 noundef %44, i32 noundef 3, i32 noundef 0)
  %46 = load ptr, ptr %5, align 8
  %47 = load i32, ptr @hf_ooodl, align 4
  %48 = load ptr, ptr %4, align 8
  %49 = load i32, ptr %6, align 4
  %50 = call ptr @proto_tree_add_item(ptr noundef %46, i32 noundef %47, ptr noundef %48, i32 noundef %49, i32 noundef 3, i32 noundef 0)
  %51 = load ptr, ptr %5, align 8
  %52 = load i32, ptr @hf_swid, align 4
  %53 = load ptr, ptr %4, align 8
  %54 = load i32, ptr %6, align 4
  %55 = call ptr @proto_tree_add_item(ptr noundef %51, i32 noundef %52, ptr noundef %53, i32 noundef %54, i32 noundef 3, i32 noundef 0)
  %56 = load i32, ptr %6, align 4
  %57 = add i32 %56, 3
  store i32 %57, ptr %6, align 4
  %58 = load ptr, ptr %5, align 8
  %59 = load i32, ptr @hf_sswid, align 4
  %60 = load ptr, ptr %4, align 8
  %61 = load i32, ptr %6, align 4
  %62 = call ptr @proto_tree_add_item(ptr noundef %58, i32 noundef %59, ptr noundef %60, i32 noundef %61, i32 noundef 1, i32 noundef 0)
  %63 = load i32, ptr %6, align 4
  %64 = add i32 %63, 1
  store i32 %64, ptr %6, align 4
  %65 = load ptr, ptr %5, align 8
  %66 = load i32, ptr @hf_lid, align 4
  %67 = load ptr, ptr %4, align 8
  %68 = load i32, ptr %6, align 4
  %69 = call ptr @proto_tree_add_item(ptr noundef %65, i32 noundef %66, ptr noundef %67, i32 noundef %68, i32 noundef 2, i32 noundef 0)
  br label %70

70:                                               ; preds = %11, %10
  ret void
}