; Function Attrs: nounwind uwtable
define internal fastcc void @fp_add_hmac(ptr noundef %0, ptr noundef %1, i32 noundef range(i32 0, 7) %2) unnamed_addr #0 {
  %.not = icmp eq ptr %1, null
  br i1 %.not, label %28, label %4

4:                                                ; preds = %3
  %5 = tail call zeroext i16 @tvb_get_ntohs(ptr noundef %0, i32 noundef %2) #4
  %6 = lshr i16 %5, 6
  %7 = and i16 %6, 3
  %8 = lshr i16 %5, 8
  %9 = and i16 %8, 252
  %10 = or disjoint i16 %7, %9
  %11 = load i32, ptr @hf_eid, align 4
  %12 = zext nneg i16 %10 to i32
  %13 = tail call ptr @proto_tree_add_uint(ptr noundef nonnull %1, i32 noundef %11, ptr noundef %0, i32 noundef %2, i32 noundef 3, i32 noundef %12) #4
  %14 = load i32, ptr @hf_ul, align 4
  %15 = tail call ptr @proto_tree_add_item(ptr noundef nonnull %1, i32 noundef %14, ptr noundef %0, i32 noundef %2, i32 noundef 3, i32 noundef 0) #4
  %16 = load i32, ptr @hf_ig, align 4
  %17 = tail call ptr @proto_tree_add_item(ptr noundef nonnull %1, i32 noundef %16, ptr noundef %0, i32 noundef %2, i32 noundef 3, i32 noundef 0) #4
  %18 = load i32, ptr @hf_ooodl, align 4
  %19 = tail call ptr @proto_tree_add_item(ptr noundef nonnull %1, i32 noundef %18, ptr noundef %0, i32 noundef %2, i32 noundef 3, i32 noundef 0) #4
  %20 = load i32, ptr @hf_swid, align 4
  %21 = tail call ptr @proto_tree_add_item(ptr noundef nonnull %1, i32 noundef %20, ptr noundef %0, i32 noundef %2, i32 noundef 3, i32 noundef 0) #4
  %22 = add nuw nsw i32 %2, 3
  %23 = load i32, ptr @hf_sswid, align 4
  %24 = tail call ptr @proto_tree_add_item(ptr noundef nonnull %1, i32 noundef %23, ptr noundef %0, i32 noundef %22, i32 noundef 1, i32 noundef 0) #4
  %25 = add nuw nsw i32 %2, 4
  %26 = load i32, ptr @hf_lid, align 4
  %27 = tail call ptr @proto_tree_add_item(ptr noundef nonnull %1, i32 noundef %26, ptr noundef %0, i32 noundef %25, i32 noundef 2, i32 noundef 0) #4
  br label %28

28:                                               ; preds = %3, %4
  ret void
}